(lp0
S'midi/babyilov_.mid'
p1
aS'midi/son1cmaj.mid'
p2
aS'midi/carisort.mid'
p3
aS'midi/what_ch2_.mid'
p4
aS'midi/Because_.mid'
p5
aS'midi/gavotte.mid'
p6
aS'midi/serso_.mid'
p7
aS'midi/bsonata4.mid'
p8
aS'midi/gigue.mid'
p9
aS'midi/input.mid'
p10
aS'midi/menuets.mid'
p11
aS'midi/bordrlin_.mid'
p12
aS'midi/fldsgold_.mid'
p13
aS'midi/he_shall_.mid'
p14
aS'midi/bridge_.mid'
p15
aS'midi/tocca5th.mid'
p16
aS'midi/courante.mid'
p17
aS'midi/Barbie_.mid'
p18
aS'midi/son3gmaj.mid'
p19
aS'midi/avemaria_.mid'
p20
aS'midi/babyilov_.mid'
p21
aS'midi/son1cmaj.mid'
p22
aS'midi/carisort.mid'
p23
aS'midi/what_ch2_.mid'
p24
aS'midi/Because_.mid'
p25
aS'midi/gavotte.mid'
p26
aS'midi/serso_.mid'
p27
aS'midi/bsonata4.mid'
p28
aS'midi/gigue.mid'
p29
aS'midi/input.mid'
p30
aS'midi/menuets.mid'
p31
aS'midi/bordrlin_.mid'
p32
aS'midi/fldsgold_.mid'
p33
aS'midi/he_shall_.mid'
p34
aS'midi/bridge_.mid'
p35
aS'midi/tocca5th.mid'
p36
aS'midi/courante.mid'
p37
aS'midi/Barbie_.mid'
p38
aS'midi/son3gmaj.mid'
p39
aS'midi/avemaria_.mid'
p40
aS'midi/babyilov_.mid'
p41
aS'midi/son1cmaj.mid'
p42
aS'midi/carisort.mid'
p43
aS'midi/what_ch2_.mid'
p44
aS'midi/Because_.mid'
p45
aS'midi/gavotte.mid'
p46
aS'midi/serso_.mid'
p47
aS'midi/bsonata4.mid'
p48
aS'midi/gigue.mid'
p49
aS'midi/input.mid'
p50
aS'midi/menuets.mid'
p51
aS'midi/bordrlin_.mid'
p52
aS'midi/fldsgold_.mid'
p53
aS'midi/he_shall_.mid'
p54
aS'midi/bridge_.mid'
p55
aS'midi/tocca5th.mid'
p56
aS'midi/courante.mid'
p57
aS'midi/Barbie_.mid'
p58
aS'midi/son3gmaj.mid'
p59
aS'midi/avemaria_.mid'
p60
aS'midi/jeloveme_.mid'
p61
aS'midi/finalb.mid'
p62
aS'midi/singing_.mid'
p63
aS'midi/allemand.mid'
p64
aS'midi/c_bells_.mid'
p65
aS'midi/dancin_days_.mid'
p66
aS'midi/fgcarols_.mid'
p67
aS'midi/wmchimes.mid'
p68
aS'midi/sugar_pf_.mid'
p69
aS'midi/anythgo_.mid'
p70
aS'midi/coventry_.mid'
p71
aS'midi/celebrat_.mid'
p72
aS'midi/carillon.mid'
p73
aS'midi/musoffer.mid'
p74
aS'midi/flyeagle_.mid'
p75
aS'midi/hymnmed1_.mid'
p76
aS'midi/hymnmed2_.mid'
p77
aS'midi/tocadmin.mid'
p78
aS'midi/fuguegig.mid'
p79
aS'midi/holiday_.mid'
p80
aS'midi/dwnunder_.mid'
p81
aS'midi/pastoral_.mid'
p82
aS'midi/bsonata1.mid'
p83
aS'midi/alkan_variations_sur_un_theme_de_steibelt_1_(c)yogore.mid'
p84
aS'midi/fanfare.mid'
p85
a.